; ModuleID = '19/2390.c'
source_filename = "19/2390.c"
target datalayout = "e-m:e-p270:32:32-p271:32:32-p272:64:64-i64:64-f80:128-n8:16:32:64-S128"
target triple = "x86_64-pc-linux-gnu"

@.str = private unnamed_addr constant [3 x i8] c"%c\00", align 1

; Function Attrs: noinline nounwind uwtable
define dso_local void @main() #0 {
  %1 = alloca [100 x i8], align 16
  %2 = alloca [100 x i8], align 16
  %3 = alloca [100 x i8], align 16
  %4 = alloca [100 x i8], align 16
  %5 = alloca [100 x i8], align 16
  %6 = alloca i32, align 4
  %7 = alloca i32, align 4
  %8 = alloca i32, align 4
  %9 = alloca i32, align 4
  %10 = alloca i32, align 4
  %11 = alloca i32, align 4
  %12 = alloca i32, align 4
  %13 = alloca i32, align 4
  %14 = alloca i32, align 4
  %15 = getelementptr inbounds [100 x i8], [100 x i8]* %1, i64 0, i64 0
  %16 = call i32 (i8*, ...) bitcast (i32 (...)* @gets to i32 (i8*, ...)*)(i8* %15)
  %17 = getelementptr inbounds [100 x i8], [100 x i8]* %1, i64 0, i64 0
  %18 = call i64 @strlen(i8* %17) #3
  %19 = trunc i64 %18 to i32
  store i32 %19, i32* %6, align 4
  %20 = load i32, i32* %6, align 4
  %21 = sext i32 %20 to i64
  %22 = getelementptr inbounds [100 x i8], [100 x i8]* %1, i64 0, i64 %21
  store i8 32, i8* %22, align 1
  %23 = load i32, i32* %6, align 4
  %24 = add nsw i32 %23, 1
  %25 = sext i32 %24 to i64
  %26 = getelementptr inbounds [100 x i8], [100 x i8]* %1, i64 0, i64 %25
  store i8 0, i8* %26, align 1
  %27 = getelementptr inbounds [100 x i8], [100 x i8]* %3, i64 0, i64 0
  %28 = call i32 (i8*, ...) bitcast (i32 (...)* @gets to i32 (i8*, ...)*)(i8* %27)
  %29 = getelementptr inbounds [100 x i8], [100 x i8]* %5, i64 0, i64 0
  %30 = call i32 (i8*, ...) bitcast (i32 (...)* @gets to i32 (i8*, ...)*)(i8* %29)
  store i32 0, i32* %7, align 4
  store i32 0, i32* %8, align 4
  store i32 0, i32* %9, align 4
  store i32 0, i32* %10, align 4
  store i32 0, i32* %11, align 4
  store i32 0, i32* %13, align 4
  store i32 0, i32* %14, align 4
  br label %31

31:                                               ; preds = %155, %0
  %32 = load i32, i32* %7, align 4
  %33 = sext i32 %32 to i64
  %34 = getelementptr inbounds [100 x i8], [100 x i8]* %1, i64 0, i64 0
  %35 = call i64 @strlen(i8* %34) #3
  %36 = icmp ult i64 %33, %35
  br i1 %36, label %37, label %156

37:                                               ; preds = %31
  %38 = load i32, i32* %7, align 4
  %39 = sext i32 %38 to i64
  %40 = getelementptr inbounds [100 x i8], [100 x i8]* %1, i64 0, i64 %39
  %41 = load i8, i8* %40, align 1
  %42 = sext i8 %41 to i32
  %43 = icmp ne i32 %42, 32
  br i1 %43, label %44, label %56

44:                                               ; preds = %37
  %45 = load i32, i32* %7, align 4
  %46 = sext i32 %45 to i64
  %47 = getelementptr inbounds [100 x i8], [100 x i8]* %1, i64 0, i64 %46
  %48 = load i8, i8* %47, align 1
  %49 = load i32, i32* %10, align 4
  %50 = sext i32 %49 to i64
  %51 = getelementptr inbounds [100 x i8], [100 x i8]* %4, i64 0, i64 %50
  store i8 %48, i8* %51, align 1
  %52 = load i32, i32* %10, align 4
  %53 = add nsw i32 %52, 1
  store i32 %53, i32* %10, align 4
  %54 = load i32, i32* %7, align 4
  %55 = add nsw i32 %54, 1
  store i32 %55, i32* %7, align 4
  store i32 1, i32* %11, align 4
  br label %155

56:                                               ; preds = %37
  %57 = load i32, i32* %11, align 4
  %58 = icmp eq i32 %57, 1
  br i1 %58, label %59, label %147

59:                                               ; preds = %56
  %60 = load i32, i32* %10, align 4
  %61 = sext i32 %60 to i64
  %62 = getelementptr inbounds [100 x i8], [100 x i8]* %4, i64 0, i64 %61
  store i8 0, i8* %62, align 1
  store i32 0, i32* %14, align 4
  %63 = getelementptr inbounds [100 x i8], [100 x i8]* %4, i64 0, i64 0
  %64 = getelementptr inbounds [100 x i8], [100 x i8]* %3, i64 0, i64 0
  %65 = call i32 @strcmp(i8* %63, i8* %64) #3
  %66 = icmp eq i32 %65, 0
  br i1 %66, label %67, label %143

67:                                               ; preds = %59
  store i32 0, i32* %12, align 4
  br label %68

68:                                               ; preds = %82, %67
  %69 = load i32, i32* %12, align 4
  %70 = load i32, i32* %7, align 4
  %71 = load i32, i32* %10, align 4
  %72 = sub nsw i32 %70, %71
  %73 = icmp slt i32 %69, %72
  br i1 %73, label %74, label %85

74:                                               ; preds = %68
  %75 = load i32, i32* %12, align 4
  %76 = sext i32 %75 to i64
  %77 = getelementptr inbounds [100 x i8], [100 x i8]* %1, i64 0, i64 %76
  %78 = load i8, i8* %77, align 1
  %79 = load i32, i32* %12, align 4
  %80 = sext i32 %79 to i64
  %81 = getelementptr inbounds [100 x i8], [100 x i8]* %2, i64 0, i64 %80
  store i8 %78, i8* %81, align 1
  br label %82

82:                                               ; preds = %74
  %83 = load i32, i32* %12, align 4
  %84 = add nsw i32 %83, 1
  store i32 %84, i32* %12, align 4
  br label %68

85:                                               ; preds = %68
  store i32 0, i32* %13, align 4
  br label %86

86:                                               ; preds = %92, %85
  %87 = load i32, i32* %13, align 4
  %88 = sext i32 %87 to i64
  %89 = getelementptr inbounds [100 x i8], [100 x i8]* %5, i64 0, i64 0
  %90 = call i64 @strlen(i8* %89) #3
  %91 = icmp ult i64 %88, %90
  br i1 %91, label %92, label %104

92:                                               ; preds = %86
  %93 = load i32, i32* %13, align 4
  %94 = sext i32 %93 to i64
  %95 = getelementptr inbounds [100 x i8], [100 x i8]* %5, i64 0, i64 %94
  %96 = load i8, i8* %95, align 1
  %97 = load i32, i32* %12, align 4
  %98 = sext i32 %97 to i64
  %99 = getelementptr inbounds [100 x i8], [100 x i8]* %2, i64 0, i64 %98
  store i8 %96, i8* %99, align 1
  %100 = load i32, i32* %13, align 4
  %101 = add nsw i32 %100, 1
  store i32 %101, i32* %13, align 4
  %102 = load i32, i32* %12, align 4
  %103 = add nsw i32 %102, 1
  store i32 %103, i32* %12, align 4
  br label %86

104:                                              ; preds = %86
  %105 = load i32, i32* %7, align 4
  store i32 %105, i32* %13, align 4
  br label %106

106:                                              ; preds = %112, %104
  %107 = load i32, i32* %13, align 4
  %108 = sext i32 %107 to i64
  %109 = getelementptr inbounds [100 x i8], [100 x i8]* %1, i64 0, i64 0
  %110 = call i64 @strlen(i8* %109) #3
  %111 = icmp ult i64 %108, %110
  br i1 %111, label %112, label %124

112:                                              ; preds = %106
  %113 = load i32, i32* %13, align 4
  %114 = sext i32 %113 to i64
  %115 = getelementptr inbounds [100 x i8], [100 x i8]* %1, i64 0, i64 %114
  %116 = load i8, i8* %115, align 1
  %117 = load i32, i32* %12, align 4
  %118 = sext i32 %117 to i64
  %119 = getelementptr inbounds [100 x i8], [100 x i8]* %2, i64 0, i64 %118
  store i8 %116, i8* %119, align 1
  %120 = load i32, i32* %13, align 4
  %121 = add nsw i32 %120, 1
  store i32 %121, i32* %13, align 4
  %122 = load i32, i32* %12, align 4
  %123 = add nsw i32 %122, 1
  store i32 %123, i32* %12, align 4
  br label %106

124:                                              ; preds = %106
  store i32 0, i32* %13, align 4
  br label %125

125:                                              ; preds = %129, %124
  %126 = load i32, i32* %13, align 4
  %127 = load i32, i32* %12, align 4
  %128 = icmp slt i32 %126, %127
  br i1 %128, label %129, label %139

129:                                              ; preds = %125
  %130 = load i32, i32* %13, align 4
  %131 = sext i32 %130 to i64
  %132 = getelementptr inbounds [100 x i8], [100 x i8]* %2, i64 0, i64 %131
  %133 = load i8, i8* %132, align 1
  %134 = load i32, i32* %13, align 4
  %135 = sext i32 %134 to i64
  %136 = getelementptr inbounds [100 x i8], [100 x i8]* %1, i64 0, i64 %135
  store i8 %133, i8* %136, align 1
  %137 = load i32, i32* %13, align 4
  %138 = add nsw i32 %137, 1
  store i32 %138, i32* %13, align 4
  br label %125

139:                                              ; preds = %125
  %140 = load i32, i32* %13, align 4
  %141 = sext i32 %140 to i64
  %142 = getelementptr inbounds [100 x i8], [100 x i8]* %1, i64 0, i64 %141
  store i8 0, i8* %142, align 1
  store i32 0, i32* %7, align 4
  br label %146

143:                                              ; preds = %59
  %144 = load i32, i32* %7, align 4
  %145 = add nsw i32 %144, 1
  store i32 %145, i32* %7, align 4
  br label %146

146:                                              ; preds = %143, %139
  store i32 0, i32* %10, align 4
  store i32 0, i32* %11, align 4
  br label %154

147:                                              ; preds = %56
  %148 = load i32, i32* %11, align 4
  %149 = icmp eq i32 %148, 0
  br i1 %149, label %150, label %153

150:                                              ; preds = %147
  %151 = load i32, i32* %7, align 4
  %152 = add nsw i32 %151, 1
  store i32 %152, i32* %7, align 4
  br label %153

153:                                              ; preds = %150, %147
  br label %154

154:                                              ; preds = %153, %146
  br label %155

155:                                              ; preds = %154, %44
  br label %31

156:                                              ; preds = %31
  store i32 0, i32* %7, align 4
  br label %157

157:                                              ; preds = %164, %156
  %158 = load i32, i32* %7, align 4
  %159 = sext i32 %158 to i64
  %160 = getelementptr inbounds [100 x i8], [100 x i8]* %1, i64 0, i64 0
  %161 = call i64 @strlen(i8* %160) #3
  %162 = sub i64 %161, 1
  %163 = icmp ult i64 %159, %162
  br i1 %163, label %164, label %173

164:                                              ; preds = %157
  %165 = load i32, i32* %7, align 4
  %166 = sext i32 %165 to i64
  %167 = getelementptr inbounds [100 x i8], [100 x i8]* %1, i64 0, i64 %166
  %168 = load i8, i8* %167, align 1
  %169 = sext i8 %168 to i32
  %170 = call i32 (i8*, ...) @printf(i8* getelementptr inbounds ([3 x i8], [3 x i8]* @.str, i64 0, i64 0), i32 %169)
  %171 = load i32, i32* %7, align 4
  %172 = add nsw i32 %171, 1
  store i32 %172, i32* %7, align 4
  br label %157

173:                                              ; preds = %157
  ret void
}

declare dso_local i32 @gets(...) #1

; Function Attrs: nounwind readonly
declare dso_local i64 @strlen(i8*) #2

; Function Attrs: nounwind readonly
declare dso_local i32 @strcmp(i8*, i8*) #2

declare dso_local i32 @printf(i8*, ...) #1


!llvm.module.flags = !{!0}
!llvm.ident = !{!1}

!0 = !{i32 1, !"wchar_size", i32 4}
!1 = !{!"clang version 10.0.0-4ubuntu1 "}
